Certificate:
    Data:
        Version: 3 (0x2)
        Serial Number: 1 (0x1)
    Signature Algorithm: sha1WithRSAEncryption
        Issuer: DC=org, DC=simple, O=Simple Inc, OU=Simple Signing CA, CN=Simple Signing CA
        Validity
            Not Before: Dec  7 02:44:24 2018 GMT
            Not After : Dec  6 02:44:24 2020 GMT
        Subject: DC=org, DC=simple, O=Simple Inc, CN=Fred Flintstone
        Subject Public Key Info:
            Public Key Algorithm: rsaEncryption
                Public-Key: (2048 bit)
                Modulus:
                    00:c3:8e:26:1d:8f:2f:00:e2:f4:91:90:72:70:33:
                    89:df:12:12:a0:3c:9e:99:96:ce:e4:44:3a:2f:8a:
                    2e:82:0a:b8:ae:8c:aa:6c:55:6b:f7:53:e5:4a:2d:
                    d9:4f:37:64:ff:92:3c:a4:e8:a4:58:d9:4b:29:53:
                    8c:63:ee:26:9b:7b:3b:23:50:9d:f7:af:ef:1c:32:
                    93:7a:c6:1c:97:6f:02:de:4a:7c:5e:d9:f9:5a:05:
                    75:8e:b7:2f:8f:95:d6:4e:a9:b8:21:d4:5a:bc:81:
                    7e:21:9b:2e:5f:57:eb:1f:b1:13:57:66:08:5a:fc:
                    fa:3d:53:23:7e:95:6d:48:28:70:18:de:46:42:5e:
                    d7:44:49:56:74:57:0b:c1:50:bd:24:04:a2:92:14:
                    be:58:60:1e:9b:9a:19:b7:83:09:0c:43:32:bf:60:
                    86:17:18:8d:26:c8:38:9c:0a:96:d0:35:3f:c0:82:
                    39:ec:0f:92:9b:40:91:b6:7e:b0:45:ca:4a:b6:e5:
                    3e:4b:50:77:70:12:a4:a9:47:ea:b2:d9:04:f2:d0:
                    88:d5:b5:66:a5:2b:d1:64:4f:fa:07:50:de:2d:38:
                    46:71:85:42:ad:d5:97:4b:58:7c:48:41:2e:40:41:
                    ed:aa:02:41:a7:2d:0c:49:ba:da:33:da:b4:a4:78:
                    fd:97
                Exponent: 65537 (0x10001)
        X509v3 extensions:
            X509v3 Key Usage: critical
                Digital Signature, Key Encipherment
            X509v3 Basic Constraints: 
                CA:FALSE
            X509v3 Extended Key Usage: 
                E-mail Protection, TLS Web Client Authentication
            X509v3 Subject Key Identifier: 
                36:96:D1:8F:59:C8:EA:C9:FA:26:FF:07:84:D2:4D:CE:E7:EC:14:10
            X509v3 Authority Key Identifier: 
                keyid:47:32:E3:D2:7F:3B:42:59:59:77:4A:8F:1E:BB:B2:4F:98:4C:55:A0

            X509v3 Subject Alternative Name: 
                email:fred@simple.org
    Signature Algorithm: sha1WithRSAEncryption
         85:c1:d9:e8:86:c2:4d:ca:46:37:6f:00:90:fe:bf:cf:25:e1:
         eb:25:ae:8d:3f:51:0c:d2:51:ca:36:28:e7:4a:3e:f8:a6:67:
         ff:bc:35:8a:9a:e3:07:e1:57:1a:05:8d:3b:5e:df:f5:bd:7c:
         57:92:cb:40:22:fd:7f:ce:9a:fa:d8:35:5d:7d:be:51:b9:21:
         ab:4d:23:89:5c:21:83:fb:c1:1c:e1:4d:c2:85:23:f6:b5:1e:
         88:6f:33:bf:54:19:cd:f3:39:95:90:1e:b8:33:3b:f8:1e:32:
         c7:87:b9:39:12:c4:69:8d:9e:52:be:e2:67:5d:1e:27:07:fd:
         5d:8e:2f:56:25:31:ef:4d:0b:bf:40:fa:28:14:94:aa:55:95:
         08:29:ae:9a:1f:ff:40:d3:29:96:8c:69:6a:c4:5a:53:e0:8f:
         ac:ce:c9:1a:b8:fd:84:d3:30:97:4c:e7:1e:21:24:3b:97:7d:
         d6:1e:b4:6b:cf:fe:dc:93:40:43:a7:20:41:fd:b4:3d:20:8f:
         ae:93:6e:a1:92:b5:86:75:d1:16:fe:b1:2c:13:9b:fe:0c:5c:
         5e:d1:91:ad:93:b8:52:0d:c5:bc:8d:12:6e:8a:20:a4:be:34:
         95:1e:5b:0b:04:4c:91:2c:d5:96:0c:7d:30:d3:4a:4c:e4:2f:
         8c:4e:e8:89
-----BEGIN CERTIFICATE-----
MIID6zCCAtOgAwIBAgIBATANBgkqhkiG9w0BAQUFADB6MRMwEQYKCZImiZPyLGQB
GRYDb3JnMRYwFAYKCZImiZPyLGQBGRYGc2ltcGxlMRMwEQYDVQQKDApTaW1wbGUg
SW5jMRowGAYDVQQLDBFTaW1wbGUgU2lnbmluZyBDQTEaMBgGA1UEAwwRU2ltcGxl
IFNpZ25pbmcgQ0EwHhcNMTgxMjA3MDI0NDI0WhcNMjAxMjA2MDI0NDI0WjBcMRMw
EQYKCZImiZPyLGQBGRYDb3JnMRYwFAYKCZImiZPyLGQBGRYGc2ltcGxlMRMwEQYD
VQQKDApTaW1wbGUgSW5jMRgwFgYDVQQDDA9GcmVkIEZsaW50c3RvbmUwggEiMA0G
CSqGSIb3DQEBAQUAA4IBDwAwggEKAoIBAQDDjiYdjy8A4vSRkHJwM4nfEhKgPJ6Z
ls7kRDovii6CCriujKpsVWv3U+VKLdlPN2T/kjyk6KRY2UspU4xj7iabezsjUJ33
r+8cMpN6xhyXbwLeSnxe2flaBXWOty+PldZOqbgh1Fq8gX4hmy5fV+sfsRNXZgha
/Po9UyN+lW1IKHAY3kZCXtdESVZ0VwvBUL0kBKKSFL5YYB6bmhm3gwkMQzK/YIYX
GI0myDicCpbQNT/AgjnsD5KbQJG2frBFykq25T5LUHdwEqSpR+qy2QTy0IjVtWal
K9FkT/oHUN4tOEZxhUKt1ZdLWHxIQS5AQe2qAkGnLQxJutoz2rSkeP2XAgMBAAGj
gZkwgZYwDgYDVR0PAQH/BAQDAgWgMAkGA1UdEwQCMAAwHQYDVR0lBBYwFAYIKwYB
BQUHAwQGCCsGAQUFBwMCMB0GA1UdDgQWBBQ2ltGPWcjqyfom/weE0k3O5+wUEDAf
BgNVHSMEGDAWgBRHMuPSfztCWVl3So8eu7JPmExVoDAaBgNVHREEEzARgQ9mcmVk
QHNpbXBsZS5vcmcwDQYJKoZIhvcNAQEFBQADggEBAIXB2eiGwk3KRjdvAJD+v88l
4eslro0/UQzSUco2KOdKPvimZ/+8NYqa4wfhVxoFjTte3/W9fFeSy0Ai/X/OmvrY
NV19vlG5IatNI4lcIYP7wRzhTcKFI/a1HohvM79UGc3zOZWQHrgzO/geMseHuTkS
xGmNnlK+4mddHicH/V2OL1YlMe9NC79A+igUlKpVlQgprpof/0DTKZaMaWrEWlPg
j6zOyRq4/YTTMJdM5x4hJDuXfdYetGvP/tyTQEOnIEH9tD0gj66TbqGStYZ10Rb+
sSwTm/4MXF7Rka2TuFINxbyNEm6KIKS+NJUeWwsETJEs1ZYMfTDTSkzkL4xO6Ik=
-----END CERTIFICATE-----
