Certificate:
    Data:
        Version: 3 (0x2)
        Serial Number: 2 (0x2)
    Signature Algorithm: sha1WithRSAEncryption
        Issuer: DC=org, DC=simple, O=Simple Inc, OU=Simple Signing CA, CN=Simple Signing CA
        Validity
            Not Before: Dec  7 02:46:43 2018 GMT
            Not After : Dec  6 02:46:43 2020 GMT
        Subject: DC=org, DC=simple, O=Simple Inc, CN=www.simple.org
        Subject Public Key Info:
            Public Key Algorithm: rsaEncryption
                Public-Key: (2048 bit)
                Modulus:
                    00:b7:c0:5b:f2:4d:8f:46:0f:7d:28:9f:cc:3e:a3:
                    d5:61:60:54:fb:28:7f:65:ee:a9:8b:26:1b:d1:d1:
                    1c:b3:fc:41:b4:49:45:f4:3f:b6:c5:7d:5b:b6:16:
                    7b:71:b6:86:6e:99:91:97:55:0f:b7:63:9a:aa:c0:
                    90:ba:a7:32:84:09:25:e4:16:c6:8c:44:02:a9:e0:
                    ac:6d:65:91:b4:7d:f4:21:ad:21:3a:aa:81:ec:66:
                    e2:8d:74:75:a6:7a:fb:90:ea:dd:df:a4:10:7f:f4:
                    f6:ec:d7:94:2a:7f:0c:0d:bf:ce:95:f9:a8:2d:c1:
                    82:74:dc:e7:83:28:c8:54:70:7b:44:8a:fd:fd:97:
                    24:90:b7:d4:30:b2:91:52:e9:0c:5e:a6:d3:65:e2:
                    ba:75:54:65:a4:d6:ed:fd:23:19:5b:33:23:d9:47:
                    9d:da:e2:da:f0:7d:cc:fe:81:2a:e9:ec:dc:51:77:
                    a6:66:a9:f3:78:09:44:94:5b:11:33:c0:d8:8d:89:
                    68:6a:d8:1b:9e:43:bf:d8:2d:5b:73:b1:3c:8d:77:
                    38:80:93:3f:c8:0c:b0:22:dd:9e:0f:33:2f:b7:ad:
                    38:da:f7:93:f1:46:01:09:be:ec:87:26:4e:7a:ca:
                    5a:25:b6:47:c3:b6:da:98:6e:94:a1:54:c0:80:69:
                    e8:d3
                Exponent: 65537 (0x10001)
        X509v3 extensions:
            X509v3 Key Usage: critical
                Digital Signature, Key Encipherment
            X509v3 Basic Constraints: 
                CA:FALSE
            X509v3 Extended Key Usage: 
                TLS Web Server Authentication, TLS Web Client Authentication
            X509v3 Subject Key Identifier: 
                96:10:DF:7F:70:18:F8:BD:11:F7:C6:81:04:F6:8C:8D:0A:6E:D1:6C
            X509v3 Authority Key Identifier: 
                keyid:47:32:E3:D2:7F:3B:42:59:59:77:4A:8F:1E:BB:B2:4F:98:4C:55:A0

            X509v3 Subject Alternative Name: 
                DNS:www.simple.org
    Signature Algorithm: sha1WithRSAEncryption
         86:0b:bf:19:10:51:bf:8c:1f:3d:d5:04:03:21:22:3a:9f:e3:
         bb:3b:04:80:d8:a5:71:b4:3c:36:fd:cc:d6:45:d0:c8:7e:c9:
         59:03:e2:2f:b8:a2:ed:94:22:80:71:6f:61:22:2c:ff:0c:04:
         ef:33:ab:54:78:d7:81:2f:ca:b4:59:d7:64:0c:37:f2:32:6e:
         e2:1e:46:7b:37:55:2a:ed:95:21:da:9d:67:c3:78:8f:fc:e9:
         84:db:81:42:ff:49:c5:1d:92:5f:ff:79:e8:36:de:56:73:6c:
         dd:91:2e:50:93:ee:ac:02:23:1c:13:4c:c2:5b:96:a1:ec:d9:
         98:96:42:13:7a:8b:2a:02:ff:2c:a0:c2:0f:4f:99:8d:b6:a7:
         ec:98:fc:fa:3c:e6:9b:29:a0:19:73:f2:7b:44:89:5c:c7:c2:
         2c:8c:10:de:bd:ca:13:4a:94:f2:6c:2d:91:75:a1:24:8e:80:
         6d:f2:23:ab:84:b5:c7:86:9e:4e:85:3c:37:b9:ef:c7:d6:0c:
         84:89:d5:4d:5d:63:e7:95:59:e7:74:44:87:7c:7e:b3:e0:99:
         4e:8f:5f:db:3e:06:97:7e:71:d2:b7:02:35:94:13:91:56:be:
         c5:f1:c7:c6:74:ec:c7:a4:c3:b5:3a:58:68:3d:a5:a5:9e:bd:
         8e:22:8c:65
-----BEGIN CERTIFICATE-----
MIID6TCCAtGgAwIBAgIBAjANBgkqhkiG9w0BAQUFADB6MRMwEQYKCZImiZPyLGQB
GRYDb3JnMRYwFAYKCZImiZPyLGQBGRYGc2ltcGxlMRMwEQYDVQQKDApTaW1wbGUg
SW5jMRowGAYDVQQLDBFTaW1wbGUgU2lnbmluZyBDQTEaMBgGA1UEAwwRU2ltcGxl
IFNpZ25pbmcgQ0EwHhcNMTgxMjA3MDI0NjQzWhcNMjAxMjA2MDI0NjQzWjBbMRMw
EQYKCZImiZPyLGQBGRYDb3JnMRYwFAYKCZImiZPyLGQBGRYGc2ltcGxlMRMwEQYD
VQQKDApTaW1wbGUgSW5jMRcwFQYDVQQDDA53d3cuc2ltcGxlLm9yZzCCASIwDQYJ
KoZIhvcNAQEBBQADggEPADCCAQoCggEBALfAW/JNj0YPfSifzD6j1WFgVPsof2Xu
qYsmG9HRHLP8QbRJRfQ/tsV9W7YWe3G2hm6ZkZdVD7djmqrAkLqnMoQJJeQWxoxE
AqngrG1lkbR99CGtITqqgexm4o10daZ6+5Dq3d+kEH/09uzXlCp/DA2/zpX5qC3B
gnTc54MoyFRwe0SK/f2XJJC31DCykVLpDF6m02XiunVUZaTW7f0jGVszI9lHndri
2vB9zP6BKuns3FF3pmap83gJRJRbETPA2I2JaGrYG55Dv9gtW3OxPI13OICTP8gM
sCLdng8zL7etONr3k/FGAQm+7IcmTnrKWiW2R8O22phulKFUwIBp6NMCAwEAAaOB
mDCBlTAOBgNVHQ8BAf8EBAMCBaAwCQYDVR0TBAIwADAdBgNVHSUEFjAUBggrBgEF
BQcDAQYIKwYBBQUHAwIwHQYDVR0OBBYEFJYQ339wGPi9EffGgQT2jI0KbtFsMB8G
A1UdIwQYMBaAFEcy49J/O0JZWXdKjx67sk+YTFWgMBkGA1UdEQQSMBCCDnd3dy5z
aW1wbGUub3JnMA0GCSqGSIb3DQEBBQUAA4IBAQCGC78ZEFG/jB891QQDISI6n+O7
OwSA2KVxtDw2/czWRdDIfslZA+IvuKLtlCKAcW9hIiz/DATvM6tUeNeBL8q0Wddk
DDfyMm7iHkZ7N1Uq7ZUh2p1nw3iP/OmE24FC/0nFHZJf/3noNt5Wc2zdkS5Qk+6s
AiMcE0zCW5ah7NmYlkITeosqAv8soMIPT5mNtqfsmPz6POabKaAZc/J7RIlcx8Is
jBDevcoTSpTybC2RdaEkjoBt8iOrhLXHhp5OhTw3ue/H1gyEidVNXWPnlVnndESH
fH6z4JlOj1/bPgaXfnHStwI1lBORVr7F8cfGdOzHpMO1OlhoPaWlnr2OIoxl
-----END CERTIFICATE-----
